target datalayout = "e-m:e-p270:32:32-p271:32:32-p272:64:64-i64:64-i128:128-f80:128-n8:16:32:64-S128"
target triple = "x86_64-pc-linux-gnu"

%struct.DecodedCert = type { ptr, i32, i32, i32, i32, i32, i32, i32, i32, i32, i32, ptr, ptr, ptr, ptr, ptr, [20 x i8], [20 x i8], ptr, ptr, i32, i8, [256 x i8], [256 x i8], i32, ptr, i32, i32, ptr, [32 x i8], i32, ptr, i32, i32, ptr, i32, ptr, i32, ptr, i32, [20 x i8], i32, [20 x i8], i32, i8, i8, i8, i16, i8, i32, ptr, i32, ptr, i32, ptr, i32, ptr, i32, i8, ptr, %struct.SignatureCtx, i32, i32, i32 }
%struct.SignatureCtx = type { ptr, ptr, ptr, ptr, i32, %union.anon, i32, i32, i32, i32, i32, i32, i32, i32 }
%union.anon = type { ptr }
%struct.testStruct = type { ptr, i32, i32 }

@.str = private unnamed_addr constant [33 x i8] c"\0AERROR - %s line %d failed with:\00", align 1
@.str.1 = private unnamed_addr constant [105 x i8] c"generated/home/dtcxzyw/WorkSpace/Projects/compilers/llvm-opt-benchmark/bench/wolfssl/wolfssl/tests/api.c\00", align 1
@.str.2 = private unnamed_addr constant [16 x i8] c"\0A    expected: \00", align 1
@stdout = external global ptr, align 8
@.str.3 = private unnamed_addr constant [9 x i8] c"%s == %s\00", align 1
@.str.6 = private unnamed_addr constant [16 x i8] c"\0A    result:   \00", align 1
@.str.7 = private unnamed_addr constant [9 x i8] c"%d != %d\00", align 1
@.str.8 = private unnamed_addr constant [3 x i8] c"\0A\0A\00", align 1
@.str.1549 = private unnamed_addr constant [61 x i8] c"wc_ParseCert(&decodedCert, CERT_TYPE, NO_VERIFY, ((void*)0))\00", align 1
@__const.test_wc_ParseCert_Error.c0 = private unnamed_addr constant [8 x i8] c"0\040\02\02\80\00\00", align 1
@__const.test_wc_ParseCert_Error.c1 = private unnamed_addr constant [8 x i8] c"0\040\04\02\80\00\00", align 1
@__const.test_wc_ParseCert_Error.c2 = private unnamed_addr constant [8 x i8] c"0\060\04\02\80\00\00", align 1
@__const.test_wc_ParseCert_Error.c3 = private unnamed_addr constant [9 x i8] c"0\070\05\02\80\10\00\00", align 1
@__const.test_wc_ParseCert_Error.c4 = private unnamed_addr constant [5 x i8] c"\02\80\10\00\00", align 1
@.str.1555 = private unnamed_addr constant [12 x i8] c"t[i].expRet\00", align 1

; Function Attrs: nounwind uwtable
define internal i32 @test_wc_ParseCert_Error() #0 {
  %1 = alloca i32, align 4
  %2 = alloca i32, align 4
  %3 = alloca %struct.DecodedCert, align 8
  %4 = alloca i32, align 4
  %5 = alloca [8 x i8], align 1
  %6 = alloca [8 x i8], align 1
  %7 = alloca [8 x i8], align 1
  %8 = alloca [9 x i8], align 1
  %9 = alloca [5 x i8], align 1
  %10 = alloca [5 x %struct.testStruct], align 16
  %11 = alloca i32, align 4
  %12 = alloca i32, align 4
  %13 = alloca i32, align 4
  call void @llvm.lifetime.start.p0(i64 4, ptr %1) #14
  store i32 3, ptr %1, align 4, !tbaa !10
  call void @llvm.lifetime.start.p0(i64 4, ptr %2) #14
  store i32 0, ptr %2, align 4, !tbaa !10
  call void @llvm.lifetime.start.p0(i64 1024, ptr %3) #14
  call void @llvm.lifetime.start.p0(i64 4, ptr %4) #14
  call void @llvm.lifetime.start.p0(i64 8, ptr %5) #14
  call void @llvm.memcpy.p0.p0.i64(ptr align 1 %5, ptr align 1 @__const.test_wc_ParseCert_Error.c0, i64 8, i1 false)
  call void @llvm.lifetime.start.p0(i64 8, ptr %6) #14
  call void @llvm.memcpy.p0.p0.i64(ptr align 1 %6, ptr align 1 @__const.test_wc_ParseCert_Error.c1, i64 8, i1 false)
  call void @llvm.lifetime.start.p0(i64 8, ptr %7) #14
  call void @llvm.memcpy.p0.p0.i64(ptr align 1 %7, ptr align 1 @__const.test_wc_ParseCert_Error.c2, i64 8, i1 false)
  call void @llvm.lifetime.start.p0(i64 9, ptr %8) #14
  call void @llvm.memcpy.p0.p0.i64(ptr align 1 %8, ptr align 1 @__const.test_wc_ParseCert_Error.c3, i64 9, i1 false)
  call void @llvm.lifetime.start.p0(i64 5, ptr %9) #14
  call void @llvm.memcpy.p0.p0.i64(ptr align 1 %9, ptr align 1 @__const.test_wc_ParseCert_Error.c4, i64 5, i1 false)
  call void @llvm.lifetime.start.p0(i64 80, ptr %10) #14
  call void @llvm.lifetime.start.p0(i64 4, ptr %11) #14
  store i32 5, ptr %11, align 4, !tbaa !10
  %14 = getelementptr inbounds [8 x i8], ptr %5, i64 0, i64 0
  %15 = getelementptr inbounds [5 x %struct.testStruct], ptr %10, i64 0, i64 0
  %16 = getelementptr inbounds nuw %struct.testStruct, ptr %15, i32 0, i32 0
  store ptr %14, ptr %16, align 16, !tbaa !146
  %17 = getelementptr inbounds [5 x %struct.testStruct], ptr %10, i64 0, i64 0
  %18 = getelementptr inbounds nuw %struct.testStruct, ptr %17, i32 0, i32 1
  store i32 8, ptr %18, align 8, !tbaa !148
  %19 = getelementptr inbounds [5 x %struct.testStruct], ptr %10, i64 0, i64 0
  %20 = getelementptr inbounds nuw %struct.testStruct, ptr %19, i32 0, i32 2
  store i32 -140, ptr %20, align 4, !tbaa !149
  %21 = getelementptr inbounds [8 x i8], ptr %6, i64 0, i64 0
  %22 = getelementptr inbounds [5 x %struct.testStruct], ptr %10, i64 0, i64 1
  %23 = getelementptr inbounds nuw %struct.testStruct, ptr %22, i32 0, i32 0
  store ptr %21, ptr %23, align 16, !tbaa !146
  %24 = getelementptr inbounds [5 x %struct.testStruct], ptr %10, i64 0, i64 1
  %25 = getelementptr inbounds nuw %struct.testStruct, ptr %24, i32 0, i32 1
  store i32 8, ptr %25, align 8, !tbaa !148
  %26 = getelementptr inbounds [5 x %struct.testStruct], ptr %10, i64 0, i64 1
  %27 = getelementptr inbounds nuw %struct.testStruct, ptr %26, i32 0, i32 2
  store i32 -140, ptr %27, align 4, !tbaa !149
  %28 = getelementptr inbounds [8 x i8], ptr %7, i64 0, i64 0
  %29 = getelementptr inbounds [5 x %struct.testStruct], ptr %10, i64 0, i64 2
  %30 = getelementptr inbounds nuw %struct.testStruct, ptr %29, i32 0, i32 0
  store ptr %28, ptr %30, align 16, !tbaa !146
  %31 = getelementptr inbounds [5 x %struct.testStruct], ptr %10, i64 0, i64 2
  %32 = getelementptr inbounds nuw %struct.testStruct, ptr %31, i32 0, i32 1
  store i32 8, ptr %32, align 8, !tbaa !148
  %33 = getelementptr inbounds [5 x %struct.testStruct], ptr %10, i64 0, i64 2
  %34 = getelementptr inbounds nuw %struct.testStruct, ptr %33, i32 0, i32 2
  store i32 -140, ptr %34, align 4, !tbaa !149
  %35 = getelementptr inbounds [9 x i8], ptr %8, i64 0, i64 0
  %36 = getelementptr inbounds [5 x %struct.testStruct], ptr %10, i64 0, i64 3
  %37 = getelementptr inbounds nuw %struct.testStruct, ptr %36, i32 0, i32 0
  store ptr %35, ptr %37, align 16, !tbaa !146
  %38 = getelementptr inbounds [5 x %struct.testStruct], ptr %10, i64 0, i64 3
  %39 = getelementptr inbounds nuw %struct.testStruct, ptr %38, i32 0, i32 1
  store i32 9, ptr %39, align 8, !tbaa !148
  %40 = getelementptr inbounds [5 x %struct.testStruct], ptr %10, i64 0, i64 3
  %41 = getelementptr inbounds nuw %struct.testStruct, ptr %40, i32 0, i32 2
  store i32 -140, ptr %41, align 4, !tbaa !149
  %42 = getelementptr inbounds [5 x i8], ptr %9, i64 0, i64 0
  %43 = getelementptr inbounds [5 x %struct.testStruct], ptr %10, i64 0, i64 4
  %44 = getelementptr inbounds nuw %struct.testStruct, ptr %43, i32 0, i32 0
  store ptr %42, ptr %44, align 16, !tbaa !146
  %45 = getelementptr inbounds [5 x %struct.testStruct], ptr %10, i64 0, i64 4
  %46 = getelementptr inbounds nuw %struct.testStruct, ptr %45, i32 0, i32 1
  store i32 5, ptr %46, align 8, !tbaa !148
  %47 = getelementptr inbounds [5 x %struct.testStruct], ptr %10, i64 0, i64 4
  %48 = getelementptr inbounds nuw %struct.testStruct, ptr %47, i32 0, i32 2
  store i32 -140, ptr %48, align 4, !tbaa !149
  store i32 0, ptr %4, align 4, !tbaa !10
  br label %49

49:                                               ; preds = %146, %0
  %50 = load i32, ptr %4, align 4, !tbaa !10
  %51 = icmp slt i32 %50, 5
  br i1 %51, label %52, label %149

52:                                               ; preds = %49
  br label %53

53:                                               ; preds = %52
  br label %54

54:                                               ; preds = %53
  br label %55

55:                                               ; preds = %54
  %56 = load i32, ptr %4, align 4, !tbaa !10
  %57 = sext i32 %56 to i64
  %58 = getelementptr inbounds [5 x %struct.testStruct], ptr %10, i64 0, i64 %57
  %59 = getelementptr inbounds nuw %struct.testStruct, ptr %58, i32 0, i32 0
  %60 = load ptr, ptr %59, align 16, !tbaa !146
  %61 = load i32, ptr %4, align 4, !tbaa !10
  %62 = sext i32 %61 to i64
  %63 = getelementptr inbounds [5 x %struct.testStruct], ptr %10, i64 0, i64 %62
  %64 = getelementptr inbounds nuw %struct.testStruct, ptr %63, i32 0, i32 1
  %65 = load i32, ptr %64, align 8, !tbaa !148
  call void @wc_InitDecodedCert(ptr noundef %3, ptr noundef %60, i32 noundef %65, ptr noundef null)
  br label %66

66:                                               ; preds = %55
  %67 = load i32, ptr %1, align 4, !tbaa !10
  %68 = icmp eq i32 %67, 1
  br i1 %68, label %78, label %69

69:                                               ; preds = %66
  %70 = load i32, ptr %1, align 4, !tbaa !10
  %71 = icmp eq i32 %70, 3
  br i1 %71, label %78, label %72

72:                                               ; preds = %69
  %73 = load i32, ptr %1, align 4, !tbaa !10
  %74 = icmp eq i32 %73, 2
  br i1 %74, label %78, label %75

75:                                               ; preds = %72
  %76 = load i32, ptr %1, align 4, !tbaa !10
  %77 = icmp eq i32 %76, 4
  br i1 %77, label %78, label %143

78:                                               ; preds = %75, %72, %69, %66
  call void @llvm.lifetime.start.p0(i64 4, ptr %12) #14
  %79 = call i32 @wc_ParseCert(ptr noundef %3, i32 noundef 0, i32 noundef 0, ptr noundef null)
  store i32 %79, ptr %12, align 4, !tbaa !10
  call void @llvm.lifetime.start.p0(i64 4, ptr %13) #14
  %80 = load i32, ptr %4, align 4, !tbaa !10
  %81 = sext i32 %80 to i64
  %82 = getelementptr inbounds [5 x %struct.testStruct], ptr %10, i64 0, i64 %81
  %83 = getelementptr inbounds nuw %struct.testStruct, ptr %82, i32 0, i32 2
  %84 = load i32, ptr %83, align 4, !tbaa !149
  store i32 %84, ptr %13, align 4, !tbaa !10
  br label %85

85:                                               ; preds = %78
  %86 = load i32, ptr %1, align 4, !tbaa !10
  %87 = icmp eq i32 %86, 1
  br i1 %87, label %97, label %88

88:                                               ; preds = %85
  %89 = load i32, ptr %1, align 4, !tbaa !10
  %90 = icmp eq i32 %89, 3
  br i1 %90, label %97, label %91

91:                                               ; preds = %88
  %92 = load i32, ptr %1, align 4, !tbaa !10
  %93 = icmp eq i32 %92, 2
  br i1 %93, label %97, label %94

94:                                               ; preds = %91
  %95 = load i32, ptr %1, align 4, !tbaa !10
  %96 = icmp eq i32 %95, 4
  br i1 %96, label %97, label %134

97:                                               ; preds = %94, %91, %88, %85
  %98 = load i32, ptr %12, align 4, !tbaa !10
  %99 = load i32, ptr %13, align 4, !tbaa !10
  %100 = icmp eq i32 %98, %99
  br i1 %100, label %127, label %101

101:                                              ; preds = %97
  br label %102

102:                                              ; preds = %101
  %103 = load i32, ptr %1, align 4, !tbaa !10
  %104 = icmp eq i32 %103, 2
  br i1 %104, label %108, label %105

105:                                              ; preds = %102
  %106 = load i32, ptr %1, align 4, !tbaa !10
  %107 = icmp eq i32 %106, 4
  br i1 %107, label %108, label %110

108:                                              ; preds = %105, %102
  %109 = load i32, ptr %2, align 4, !tbaa !10
  store i32 %109, ptr %1, align 4, !tbaa !10
  br label %124

110:                                              ; preds = %105
  %111 = call i32 (ptr, ...) @printf(ptr noundef @.str, ptr noundef @.str.1, i32 noundef 76364)
  %112 = load ptr, ptr @stdout, align 8, !tbaa !22
  %113 = call i32 @fputs(ptr noundef @.str.2, ptr noundef %112)
  %114 = call i32 (ptr, ...) @printf(ptr noundef @.str.3, ptr noundef @.str.1549, ptr noundef @.str.1555)
  %115 = load ptr, ptr @stdout, align 8, !tbaa !22
  %116 = call i32 @fputs(ptr noundef @.str.6, ptr noundef %115)
  %117 = load i32, ptr %12, align 4, !tbaa !10
  %118 = load i32, ptr %13, align 4, !tbaa !10
  %119 = call i32 (ptr, ...) @printf(ptr noundef @.str.7, i32 noundef %117, i32 noundef %118)
  %120 = load ptr, ptr @stdout, align 8, !tbaa !22
  %121 = call i32 @fputs(ptr noundef @.str.8, ptr noundef %120)
  %122 = load ptr, ptr @stdout, align 8, !tbaa !22
  %123 = call i32 @fflush(ptr noundef %122)
  store i32 0, ptr %1, align 4, !tbaa !10
  br label %124

124:                                              ; preds = %110, %108
  br label %125

125:                                              ; preds = %124
  br label %126

126:                                              ; preds = %125
  br label %133

127:                                              ; preds = %97
  %128 = load i32, ptr %1, align 4, !tbaa !10
  %129 = icmp eq i32 %128, 4
  br i1 %129, label %130, label %131

130:                                              ; preds = %127
  store i32 2, ptr %1, align 4, !tbaa !10
  br label %132

131:                                              ; preds = %127
  store i32 1, ptr %1, align 4, !tbaa !10
  br label %132

132:                                              ; preds = %131, %130
  br label %133

133:                                              ; preds = %132, %126
  br label %134

134:                                              ; preds = %133, %94
  %135 = load i32, ptr %1, align 4, !tbaa !10
  %136 = icmp eq i32 %135, 2
  br i1 %136, label %137, label %140

137:                                              ; preds = %134
  %138 = load i32, ptr %2, align 4, !tbaa !10
  %139 = add nsw i32 %138, -1
  store i32 %139, ptr %2, align 4, !tbaa !10
  br label %140

140:                                              ; preds = %137, %134
  br label %141

141:                                              ; preds = %140
  br label %142

142:                                              ; preds = %141
  call void @llvm.lifetime.end.p0(i64 4, ptr %13) #14
  call void @llvm.lifetime.end.p0(i64 4, ptr %12) #14
  br label %143

143:                                              ; preds = %142, %75
  br label %144

144:                                              ; preds = %143
  br label %145

145:                                              ; preds = %144
  call void @wc_FreeDecodedCert(ptr noundef %3)
  br label %146

146:                                              ; preds = %145
  %147 = load i32, ptr %4, align 4, !tbaa !10
  %148 = add nsw i32 %147, 1
  store i32 %148, ptr %4, align 4, !tbaa !10
  br label %49, !llvm.loop !150

149:                                              ; preds = %49
  %150 = load i32, ptr %1, align 4, !tbaa !10
  %151 = icmp eq i32 %150, 2
  br i1 %151, label %152, label %153

152:                                              ; preds = %149
  br label %161

153:                                              ; preds = %149
  %154 = load i32, ptr %1, align 4, !tbaa !10
  %155 = icmp eq i32 %154, 4
  br i1 %155, label %156, label %157

156:                                              ; preds = %153
  br label %159

157:                                              ; preds = %153
  %158 = load i32, ptr %1, align 4, !tbaa !10
  br label %159

159:                                              ; preds = %157, %156
  %160 = phi i32 [ 3, %156 ], [ %158, %157 ]
  br label %161

161:                                              ; preds = %159, %152
  %162 = phi i32 [ 1, %152 ], [ %160, %159 ]
  call void @llvm.lifetime.end.p0(i64 4, ptr %11) #14
  call void @llvm.lifetime.end.p0(i64 80, ptr %10) #14
  call void @llvm.lifetime.end.p0(i64 5, ptr %9) #14
  call void @llvm.lifetime.end.p0(i64 9, ptr %8) #14
  call void @llvm.lifetime.end.p0(i64 8, ptr %7) #14
  call void @llvm.lifetime.end.p0(i64 8, ptr %6) #14
  call void @llvm.lifetime.end.p0(i64 8, ptr %5) #14
  call void @llvm.lifetime.end.p0(i64 4, ptr %4) #14
  call void @llvm.lifetime.end.p0(i64 1024, ptr %3) #14
  call void @llvm.lifetime.end.p0(i64 4, ptr %2) #14
  call void @llvm.lifetime.end.p0(i64 4, ptr %1) #14
  ret i32 %162
}