; Function Attrs: nounwind uwtable
define internal range(i32 0, 2) i32 @test_wc_ParseCert_Error() #0 {
  %1 = alloca %struct.DecodedCert, align 8
  %2 = alloca [8 x i8], align 8
  %3 = alloca [8 x i8], align 8
  %4 = alloca [8 x i8], align 8
  %5 = alloca [9 x i8], align 1
  %6 = alloca [5 x i8], align 1
  %7 = alloca [5 x %struct.testStruct], align 16
  call void @llvm.lifetime.start.p0(i64 1024, ptr nonnull %1) #27
  call void @llvm.lifetime.start.p0(i64 8, ptr nonnull %2) #27
  store i64 140746114991152, ptr %2, align 8
  call void @llvm.lifetime.start.p0(i64 8, ptr nonnull %3) #27
  store i64 140746148545584, ptr %3, align 8
  call void @llvm.lifetime.start.p0(i64 8, ptr nonnull %4) #27
  store i64 140746148546096, ptr %4, align 8
  call void @llvm.lifetime.start.p0(i64 9, ptr nonnull %5) #27
  call void @llvm.memcpy.p0.p0.i64(ptr noundef nonnull align 1 dereferenceable(9) %5, ptr noundef nonnull align 1 dereferenceable(9) @__const.test_wc_ParseCert_Error.c3, i64 9, i1 false)
  call void @llvm.lifetime.start.p0(i64 5, ptr nonnull %6) #27
  call void @llvm.memcpy.p0.p0.i64(ptr noundef nonnull align 1 dereferenceable(5) %6, ptr noundef nonnull align 1 dereferenceable(5) @__const.test_wc_ParseCert_Error.c4, i64 5, i1 false)
  call void @llvm.lifetime.start.p0(i64 80, ptr nonnull %7) #27
  store ptr %2, ptr %7, align 16, !tbaa !130
  %8 = getelementptr inbounds nuw i8, ptr %7, i64 8
  store i32 8, ptr %8, align 8, !tbaa !132
  %9 = getelementptr inbounds nuw i8, ptr %7, i64 12
  store i32 -140, ptr %9, align 4, !tbaa !133
  %10 = getelementptr inbounds nuw i8, ptr %7, i64 16
  store ptr %3, ptr %10, align 16, !tbaa !130
  %11 = getelementptr inbounds nuw i8, ptr %7, i64 24
  store i32 8, ptr %11, align 8, !tbaa !132
  %12 = getelementptr inbounds nuw i8, ptr %7, i64 28
  store i32 -140, ptr %12, align 4, !tbaa !133
  %13 = getelementptr inbounds nuw i8, ptr %7, i64 32
  store ptr %4, ptr %13, align 16, !tbaa !130
  %14 = getelementptr inbounds nuw i8, ptr %7, i64 40
  store i32 8, ptr %14, align 8, !tbaa !132
  %15 = getelementptr inbounds nuw i8, ptr %7, i64 44
  store i32 -140, ptr %15, align 4, !tbaa !133
  %16 = getelementptr inbounds nuw i8, ptr %7, i64 48
  store ptr %5, ptr %16, align 16, !tbaa !130
  %17 = getelementptr inbounds nuw i8, ptr %7, i64 56
  store i32 9, ptr %17, align 8, !tbaa !132
  %18 = getelementptr inbounds nuw i8, ptr %7, i64 60
  store i32 -140, ptr %18, align 4, !tbaa !133
  %19 = getelementptr inbounds nuw i8, ptr %7, i64 64
  store ptr %6, ptr %19, align 16, !tbaa !130
  %20 = getelementptr inbounds nuw i8, ptr %7, i64 72
  store i32 5, ptr %20, align 8, !tbaa !132
  %21 = getelementptr inbounds nuw i8, ptr %7, i64 76
  store i32 -140, ptr %21, align 4, !tbaa !133
  br label %22

22:                                               ; preds = %0, %44
  %indvars.iv = phi i64 [ 0, %0 ], [ %indvars.iv.next, %44 ]
  %.046 = phi i32 [ 3, %0 ], [ %.2, %44 ]
  %23 = getelementptr inbounds nuw [5 x %struct.testStruct], ptr %7, i64 0, i64 %indvars.iv
  %24 = load ptr, ptr %23, align 16, !tbaa !130
  %25 = getelementptr inbounds nuw i8, ptr %23, i64 8
  %26 = load i32, ptr %25, align 8, !tbaa !132
  call void @wc_InitDecodedCert(ptr noundef nonnull %1, ptr noundef %24, i32 noundef %26, ptr noundef null) #27
  %.0.off = add nsw i32 %.046, -1
  %switch = icmp ult i32 %.0.off, 3
  br i1 %switch, label %27, label %44

27:                                               ; preds = %22
  %28 = call i32 @wc_ParseCert(ptr noundef nonnull %1, i32 noundef 0, i32 noundef 0, ptr noundef null) #27
  %29 = getelementptr inbounds nuw i8, ptr %23, i64 12
  %30 = load i32, ptr %29, align 4, !tbaa !133
  %31 = icmp eq i32 %28, %30
  br i1 %31, label %44, label %32

32:                                               ; preds = %27
  %33 = call i32 (ptr, ...) @printf(ptr noundef nonnull dereferenceable(1) @.str, ptr noundef nonnull @.str.1, i32 noundef 76364)
  %34 = load ptr, ptr @stdout, align 8, !tbaa !22
  %35 = call i64 @fwrite(ptr nonnull @.str.2, i64 15, i64 1, ptr %34)
  %36 = call i32 (ptr, ...) @printf(ptr noundef nonnull dereferenceable(1) @.str.3, ptr noundef nonnull @.str.1549, ptr noundef nonnull @.str.1555)
  %37 = load ptr, ptr @stdout, align 8, !tbaa !22
  %38 = call i64 @fwrite(ptr nonnull @.str.6, i64 15, i64 1, ptr %37)
  %39 = call i32 (ptr, ...) @printf(ptr noundef nonnull dereferenceable(1) @.str.7, i32 noundef %28, i32 noundef %30)
  %40 = load ptr, ptr @stdout, align 8, !tbaa !22
  %41 = call i64 @fwrite(ptr nonnull @.str.8, i64 2, i64 1, ptr %40)
  %42 = load ptr, ptr @stdout, align 8, !tbaa !22
  %43 = call i32 @fflush(ptr noundef %42)
  br label %44

44:                                               ; preds = %27, %22, %32
  %.2 = phi i32 [ %.046, %22 ], [ 0, %32 ], [ 1, %27 ]
  call void @wc_FreeDecodedCert(ptr noundef nonnull %1) #27
  %indvars.iv.next = add nuw nsw i64 %indvars.iv, 1
  %exitcond.not = icmp eq i64 %indvars.iv.next, 5
  br i1 %exitcond.not, label %45, label %22, !llvm.loop !134

45:                                               ; preds = %44
  call void @llvm.lifetime.end.p0(i64 80, ptr nonnull %7) #27
  call void @llvm.lifetime.end.p0(i64 5, ptr nonnull %6) #27
  call void @llvm.lifetime.end.p0(i64 9, ptr nonnull %5) #27
  call void @llvm.lifetime.end.p0(i64 8, ptr nonnull %4) #27
  call void @llvm.lifetime.end.p0(i64 8, ptr nonnull %3) #27
  call void @llvm.lifetime.end.p0(i64 8, ptr nonnull %2) #27
  call void @llvm.lifetime.end.p0(i64 1024, ptr nonnull %1) #27
  ret i32 %.2
}